target datalayout = "e-m:e-p270:32:32-p271:32:32-p272:64:64-i64:64-i128:128-f80:128-n8:16:32:64-S128"
target triple = "x86_64-pc-linux-gnu"

@.str.3 = private unnamed_addr constant [2 x i8] c"\0A\00", align 1
@.str.4 = private unnamed_addr constant [32 x i8] c"    eval [options] [selection]\0A\00", align 1
@.str.5 = private unnamed_addr constant [78 x i8] c"This command evaluates the value of a signal given the value of all required\0A\00", align 1
@.str.6 = private unnamed_addr constant [9 x i8] c"inputs.\0A\00", align 1
@.str.7 = private unnamed_addr constant [27 x i8] c"    -set <signal> <value>\0A\00", align 1
@.str.8 = private unnamed_addr constant [58 x i8] c"        set the specified signal to the specified value.\0A\00", align 1
@.str.9 = private unnamed_addr constant [16 x i8] c"    -set-undef\0A\00", align 1
@.str.10 = private unnamed_addr constant [57 x i8] c"        set all unspecified source signals to undef (x)\0A\00", align 1
@.str.11 = private unnamed_addr constant [21 x i8] c"    -table <signal>\0A\00", align 1
@.str.12 = private unnamed_addr constant [64 x i8] c"        create a truth table using the specified input signals\0A\00", align 1
@.str.13 = private unnamed_addr constant [20 x i8] c"    -show <signal>\0A\00", align 1
@.str.14 = private unnamed_addr constant [79 x i8] c"        show the value for the specified signal. if no -show option is passed\0A\00", align 1
@.str.15 = private unnamed_addr constant [63 x i8] c"        then all output ports of the current module are used.\0A\00", align 1

; Function Attrs: mustprogress uwtable
define internal void @_ZN12_GLOBAL__N_18EvalPass4helpEv(ptr noundef nonnull align 8 dereferenceable(104) %0) unnamed_addr #4 align 2 {
  %2 = alloca ptr, align 8
  store ptr %0, ptr %2, align 8
  call void (ptr, ...) @_ZN5Yosys3logEPKcz(ptr noundef @.str.3)
  call void (ptr, ...) @_ZN5Yosys3logEPKcz(ptr noundef @.str.4)
  call void (ptr, ...) @_ZN5Yosys3logEPKcz(ptr noundef @.str.3)
  call void (ptr, ...) @_ZN5Yosys3logEPKcz(ptr noundef @.str.5)
  call void (ptr, ...) @_ZN5Yosys3logEPKcz(ptr noundef @.str.6)
  call void (ptr, ...) @_ZN5Yosys3logEPKcz(ptr noundef @.str.3)
  call void (ptr, ...) @_ZN5Yosys3logEPKcz(ptr noundef @.str.7)
  call void (ptr, ...) @_ZN5Yosys3logEPKcz(ptr noundef @.str.8)
  call void (ptr, ...) @_ZN5Yosys3logEPKcz(ptr noundef @.str.3)
  call void (ptr, ...) @_ZN5Yosys3logEPKcz(ptr noundef @.str.9)
  call void (ptr, ...) @_ZN5Yosys3logEPKcz(ptr noundef @.str.10)
  call void (ptr, ...) @_ZN5Yosys3logEPKcz(ptr noundef @.str.3)
  call void (ptr, ...) @_ZN5Yosys3logEPKcz(ptr noundef @.str.11)
  call void (ptr, ...) @_ZN5Yosys3logEPKcz(ptr noundef @.str.12)
  call void (ptr, ...) @_ZN5Yosys3logEPKcz(ptr noundef @.str.3)
  call void (ptr, ...) @_ZN5Yosys3logEPKcz(ptr noundef @.str.13)
  call void (ptr, ...) @_ZN5Yosys3logEPKcz(ptr noundef @.str.14)
  call void (ptr, ...) @_ZN5Yosys3logEPKcz(ptr noundef @.str.15)
  call void (ptr, ...) @_ZN5Yosys3logEPKcz(ptr noundef @.str.3)
  ret void
}